; ModuleID = '15/273.c'
source_filename = "15/273.c"
target datalayout = "e-m:e-p270:32:32-p271:32:32-p272:64:64-i64:64-f80:128-n8:16:32:64-S128"
target triple = "x86_64-pc-linux-gnu"

@.str = private unnamed_addr constant [3 x i8] c"%d\00", align 1

; Function Attrs: noinline nounwind uwtable
define dso_local i32 @main() #0 {
  %1 = alloca i32, align 4
  %2 = alloca i32, align 4
  %3 = alloca i32, align 4
  %4 = alloca i32, align 4
  %5 = alloca i32, align 4
  %6 = alloca i32, align 4
  %7 = alloca i32, align 4
  %8 = alloca i32, align 4
  %9 = alloca i32, align 4
  store i32 0, i32* %1, align 4
  store i32 0, i32* %6, align 4
  store i32 1, i32* %7, align 4
  store i32 0, i32* %9, align 4
  %10 = call i32 (i8*, ...) @__isoc99_scanf(i8* getelementptr inbounds ([3 x i8], [3 x i8]* @.str, i64 0, i64 0), i32* %2)
  store i32 1, i32* %3, align 4
  br label %11

11:                                               ; preds = %50, %0
  %12 = load i32, i32* %3, align 4
  %13 = load i32, i32* %2, align 4
  %14 = icmp sle i32 %12, %13
  br i1 %14, label %15, label %53

15:                                               ; preds = %11
  store i32 1, i32* %8, align 4
  %16 = load i32, i32* %6, align 4
  %17 = icmp eq i32 %16, 0
  br i1 %17, label %18, label %20

18:                                               ; preds = %15
  %19 = load i32, i32* %3, align 4
  store i32 %19, i32* %7, align 4
  br label %20

20:                                               ; preds = %18, %15
  store i32 1, i32* %4, align 4
  br label %21

21:                                               ; preds = %46, %20
  %22 = load i32, i32* %4, align 4
  %23 = load i32, i32* %2, align 4
  %24 = icmp sle i32 %22, %23
  br i1 %24, label %25, label %49

25:                                               ; preds = %21
  %26 = call i32 (i8*, ...) @__isoc99_scanf(i8* getelementptr inbounds ([3 x i8], [3 x i8]* @.str, i64 0, i64 0), i32* %5)
  %27 = load i32, i32* %5, align 4
  %28 = icmp eq i32 %27, 0
  br i1 %28, label %29, label %45

29:                                               ; preds = %25
  %30 = load i32, i32* %8, align 4
  %31 = icmp eq i32 %30, 1
  br i1 %31, label %32, label %37

32:                                               ; preds = %29
  %33 = load i32, i32* %9, align 4
  %34 = add nsw i32 %33, 1
  store i32 %34, i32* %9, align 4
  %35 = load i32, i32* %8, align 4
  %36 = add nsw i32 %35, 1
  store i32 %36, i32* %8, align 4
  br label %37

37:                                               ; preds = %32, %29
  %38 = load i32, i32* %7, align 4
  %39 = load i32, i32* %3, align 4
  %40 = icmp eq i32 %38, %39
  br i1 %40, label %41, label %44

41:                                               ; preds = %37
  %42 = load i32, i32* %6, align 4
  %43 = add nsw i32 %42, 1
  store i32 %43, i32* %6, align 4
  br label %44

44:                                               ; preds = %41, %37
  br label %45

45:                                               ; preds = %44, %25
  br label %46

46:                                               ; preds = %45
  %47 = load i32, i32* %4, align 4
  %48 = add nsw i32 %47, 1
  store i32 %48, i32* %4, align 4
  br label %21

49:                                               ; preds = %21
  br label %50

50:                                               ; preds = %49
  %51 = load i32, i32* %3, align 4
  %52 = add nsw i32 %51, 1
  store i32 %52, i32* %3, align 4
  br label %11

53:                                               ; preds = %11
  %54 = load i32, i32* %9, align 4
  %55 = sub nsw i32 %54, 2
  %56 = load i32, i32* %6, align 4
  %57 = sub nsw i32 %56, 2
  %58 = mul nsw i32 %55, %57
  %59 = call i32 (i8*, ...) @printf(i8* getelementptr inbounds ([3 x i8], [3 x i8]* @.str, i64 0, i64 0), i32 %58)
  ret i32 0
}

declare dso_local i32 @__isoc99_scanf(i8*, ...) #1

declare dso_local i32 @printf(i8*, ...) #1


!llvm.module.flags = !{!0}
!llvm.ident = !{!1}

!0 = !{i32 1, !"wchar_size", i32 4}
!1 = !{!"clang version 10.0.0-4ubuntu1 "}
